; Function Attrs: nounwind uwtable
define internal range(i32 0, 2) i32 @test_mod_exp(i32 noundef %0) #1 {
  %2 = alloca ptr, align 8
  %3 = alloca ptr, align 8
  %4 = alloca ptr, align 8
  %5 = sext i32 %0 to i64
  %6 = getelementptr inbounds [16 x %struct.mod_exp_test_st], ptr @ModExpTests, i64 0, i64 %5
  call void @llvm.lifetime.start.p0(i64 8, ptr nonnull %2) #8
  store ptr null, ptr %2, align 8, !tbaa !21
  call void @llvm.lifetime.start.p0(i64 8, ptr nonnull %3) #8
  store ptr null, ptr %3, align 8, !tbaa !21
  call void @llvm.lifetime.start.p0(i64 8, ptr nonnull %4) #8
  store ptr null, ptr %4, align 8, !tbaa !21
  %7 = tail call ptr @BN_new() #8
  %8 = tail call i32 @test_ptr(ptr noundef nonnull @.str.17, i32 noundef 3067, ptr noundef nonnull @.str.566, ptr noundef %7) #8
  %.not = icmp eq i32 %8, 0
  br i1 %.not, label %45, label %9

9:                                                ; preds = %1
  %10 = load ptr, ptr %6, align 16, !tbaa !56
  %11 = call i32 @BN_dec2bn(ptr noundef nonnull %2, ptr noundef %10) #8
  %12 = icmp ne i32 %11, 0
  %13 = zext i1 %12 to i32
  %14 = call i32 @test_true(ptr noundef nonnull @.str.17, i32 noundef 3068, ptr noundef nonnull @.str.567, i32 noundef %13) #8
  %.not13 = icmp eq i32 %14, 0
  br i1 %.not13, label %45, label %15

15:                                               ; preds = %9
  %16 = getelementptr inbounds nuw i8, ptr %6, i64 8
  %17 = load ptr, ptr %16, align 8, !tbaa !58
  %18 = call i32 @BN_dec2bn(ptr noundef nonnull %3, ptr noundef %17) #8
  %19 = icmp ne i32 %18, 0
  %20 = zext i1 %19 to i32
  %21 = call i32 @test_true(ptr noundef nonnull @.str.17, i32 noundef 3069, ptr noundef nonnull @.str.568, i32 noundef %20) #8
  %.not14 = icmp eq i32 %21, 0
  br i1 %.not14, label %45, label %22

22:                                               ; preds = %15
  %23 = getelementptr inbounds nuw i8, ptr %6, i64 16
  %24 = load ptr, ptr %23, align 16, !tbaa !59
  %25 = call i32 @BN_dec2bn(ptr noundef nonnull %4, ptr noundef %24) #8
  %26 = icmp ne i32 %25, 0
  %27 = zext i1 %26 to i32
  %28 = call i32 @test_true(ptr noundef nonnull @.str.17, i32 noundef 3070, ptr noundef nonnull @.str.569, i32 noundef %27) #8
  %.not15 = icmp eq i32 %28, 0
  br i1 %.not15, label %45, label %29

29:                                               ; preds = %22
  %30 = load ptr, ptr %2, align 8, !tbaa !21
  %31 = load ptr, ptr %3, align 8, !tbaa !21
  %32 = load ptr, ptr %4, align 8, !tbaa !21
  %33 = load ptr, ptr @ctx, align 8, !tbaa !6
  %34 = call i32 @BN_mod_exp(ptr noundef %7, ptr noundef %30, ptr noundef %31, ptr noundef %32, ptr noundef %33) #8
  %35 = call i32 @test_int_eq(ptr noundef nonnull @.str.17, i32 noundef 3073, ptr noundef nonnull @.str.570, ptr noundef nonnull @.str.123, i32 noundef %34, i32 noundef 1) #8
  %.not16 = icmp eq i32 %35, 0
  br i1 %.not16, label %45, label %36

36:                                               ; preds = %29
  %37 = call ptr @BN_bn2dec(ptr noundef %7) #8
  %38 = call i32 @test_ptr(ptr noundef nonnull @.str.17, i32 noundef 3076, ptr noundef nonnull @.str.571, ptr noundef %37) #8
  %.not17 = icmp eq i32 %38, 0
  br i1 %.not17, label %45, label %39

39:                                               ; preds = %36
  %40 = call i64 @strlen(ptr noundef nonnull dereferenceable(1) %37) #9
  %41 = getelementptr inbounds nuw i8, ptr %6, i64 24
  %42 = load ptr, ptr %41, align 8, !tbaa !60
  %43 = call i64 @strlen(ptr noundef nonnull dereferenceable(1) %42) #9
  %44 = call i32 @test_mem_eq(ptr noundef nonnull @.str.17, i32 noundef 3079, ptr noundef nonnull @.str.551, ptr noundef nonnull @.str.572, ptr noundef nonnull %37, i64 noundef %40, ptr noundef nonnull %42, i64 noundef %43) #8
  %.not18 = icmp ne i32 %44, 0
  %spec.select = zext i1 %.not18 to i32
  br label %45

45:                                               ; preds = %39, %36, %29, %1, %9, %15, %22
  %.012 = phi i32 [ 0, %36 ], [ 0, %29 ], [ 0, %22 ], [ 0, %15 ], [ 0, %9 ], [ 0, %1 ], [ %spec.select, %39 ]
  %.0 = phi ptr [ %37, %36 ], [ null, %29 ], [ null, %22 ], [ null, %15 ], [ null, %9 ], [ null, %1 ], [ %37, %39 ]
  call void @CRYPTO_free(ptr noundef %.0, ptr noundef nonnull @.str.17, i32 noundef 3085) #8
  call void @BN_free(ptr noundef %7) #8
  %46 = load ptr, ptr %2, align 8, !tbaa !21
  call void @BN_free(ptr noundef %46) #8
  %47 = load ptr, ptr %3, align 8, !tbaa !21
  call void @BN_free(ptr noundef %47) #8
  %48 = load ptr, ptr %4, align 8, !tbaa !21
  call void @BN_free(ptr noundef %48) #8
  call void @llvm.lifetime.end.p0(i64 8, ptr nonnull %4) #8
  call void @llvm.lifetime.end.p0(i64 8, ptr nonnull %3) #8
  call void @llvm.lifetime.end.p0(i64 8, ptr nonnull %2) #8
  ret i32 %.012
}